target datalayout = "e-m:e-p270:32:32-p271:32:32-p272:64:64-i64:64-i128:128-f80:128-n8:16:32:64-S128"
target triple = "x86_64-pc-linux-gnu"

%struct.cbs_st = type { ptr, i64 }
%struct.ssl_st = type { i32, i16, i16, ptr, ptr, ptr, ptr, ptr, i32, i32, ptr, ptr, i32, i32, ptr, ptr, ptr, ptr, ptr, ptr, ptr, ptr, i32, i32, [32 x i8], ptr, ptr, ptr, ptr, ptr, ptr, ptr, i64, %struct.crypto_ex_data_st, ptr, i32, i32, i32, i32, i16, ptr, i32, i64, ptr, ptr, ptr, ptr, ptr, ptr, i32, i32, ptr, ptr, i8, i8, i32 }
%struct.crypto_ex_data_st = type { ptr }
%struct.cert_st = type { ptr, ptr, ptr, ptr, i32, i32, ptr, ptr, ptr, i64, ptr, i64, ptr, ptr, ptr }

; Function Attrs: nounwind uwtable
define internal i32 @ext_sigalgs_parse_clienthello(ptr noundef %0, ptr noundef %1, ptr noundef %2) #0 {
  %4 = alloca i32, align 4
  %5 = alloca ptr, align 8
  %6 = alloca ptr, align 8
  %7 = alloca ptr, align 8
  %8 = alloca %struct.cbs_st, align 8
  %9 = alloca i32, align 4
  store ptr %0, ptr %5, align 8, !tbaa !69
  store ptr %1, ptr %6, align 8, !tbaa !55
  store ptr %2, ptr %7, align 8, !tbaa !52
  %10 = load ptr, ptr %5, align 8, !tbaa !69
  %11 = getelementptr inbounds nuw %struct.ssl_st, ptr %10, i32 0, i32 21
  %12 = load ptr, ptr %11, align 8, !tbaa !113
  %13 = getelementptr inbounds nuw %struct.cert_st, ptr %12, i32 0, i32 8
  %14 = load ptr, ptr %13, align 8, !tbaa !167
  call void @free(ptr noundef %14) #8
  %15 = load ptr, ptr %5, align 8, !tbaa !69
  %16 = getelementptr inbounds nuw %struct.ssl_st, ptr %15, i32 0, i32 21
  %17 = load ptr, ptr %16, align 8, !tbaa !113
  %18 = getelementptr inbounds nuw %struct.cert_st, ptr %17, i32 0, i32 8
  store ptr null, ptr %18, align 8, !tbaa !167
  %19 = load ptr, ptr %5, align 8, !tbaa !69
  %20 = getelementptr inbounds nuw %struct.ssl_st, ptr %19, i32 0, i32 21
  %21 = load ptr, ptr %20, align 8, !tbaa !113
  %22 = getelementptr inbounds nuw %struct.cert_st, ptr %21, i32 0, i32 9
  store i64 0, ptr %22, align 8, !tbaa !168
  %23 = load ptr, ptr %7, align 8, !tbaa !52
  %24 = icmp eq ptr %23, null
  br i1 %24, label %25, label %26

25:                                               ; preds = %3
  store i32 1, ptr %4, align 4
  br label %44

26:                                               ; preds = %3
  call void @llvm.lifetime.start.p0(i64 16, ptr %8) #8
  %27 = load ptr, ptr %7, align 8, !tbaa !52
  %28 = call i32 @CBS_get_u16_length_prefixed(ptr noundef %27, ptr noundef %8)
  %29 = icmp ne i32 %28, 0
  br i1 %29, label %30, label %41

30:                                               ; preds = %26
  %31 = load ptr, ptr %7, align 8, !tbaa !52
  %32 = call i64 @CBS_len(ptr noundef %31)
  %33 = icmp ne i64 %32, 0
  br i1 %33, label %41, label %34

34:                                               ; preds = %30
  %35 = call i64 @CBS_len(ptr noundef %8)
  %36 = icmp eq i64 %35, 0
  br i1 %36, label %41, label %37

37:                                               ; preds = %34
  %38 = load ptr, ptr %5, align 8, !tbaa !69
  %39 = call i32 @tls1_parse_peer_sigalgs(ptr noundef %38, ptr noundef %8)
  %40 = icmp ne i32 %39, 0
  br i1 %40, label %42, label %41

41:                                               ; preds = %37, %34, %30, %26
  store i32 0, ptr %4, align 4
  store i32 1, ptr %9, align 4
  br label %43

42:                                               ; preds = %37
  store i32 1, ptr %4, align 4
  store i32 1, ptr %9, align 4
  br label %43

43:                                               ; preds = %42, %41
  call void @llvm.lifetime.end.p0(i64 16, ptr %8) #8
  br label %44

44:                                               ; preds = %43, %25
  %45 = load i32, ptr %4, align 4
  ret i32 %45
}