; Function Attrs: nounwind uwtable
define internal range(i32 0, 2) i32 @ext_sigalgs_parse_clienthello(ptr noundef %0, ptr readnone captures(none) %1, ptr noundef %2) #0 {
  %4 = alloca %struct.cbs_st, align 8
  %5 = getelementptr inbounds nuw i8, ptr %0, i64 136
  %6 = load ptr, ptr %5, align 8, !tbaa !93
  %7 = getelementptr inbounds nuw i8, ptr %6, i64 56
  %8 = load ptr, ptr %7, align 8, !tbaa !136
  tail call void @free(ptr noundef %8) #21
  %9 = load ptr, ptr %5, align 8, !tbaa !93
  %10 = getelementptr inbounds nuw i8, ptr %9, i64 56
  %11 = icmp eq ptr %2, null
  tail call void @llvm.memset.p0.i64(ptr noundef nonnull align 8 dereferenceable(16) %10, i8 0, i64 16, i1 false)
  br i1 %11, label %22, label %12

12:                                               ; preds = %3
  call void @llvm.lifetime.start.p0(i64 16, ptr nonnull %4) #21
  %13 = call i32 @CBS_get_u16_length_prefixed(ptr noundef nonnull %2, ptr noundef nonnull %4) #21
  %.not = icmp eq i32 %13, 0
  br i1 %.not, label %21, label %14

14:                                               ; preds = %12
  %15 = call i64 @CBS_len(ptr noundef nonnull %2) #21
  %.not8 = icmp eq i64 %15, 0
  br i1 %.not8, label %16, label %21

16:                                               ; preds = %14
  %17 = call i64 @CBS_len(ptr noundef nonnull %4) #21
  %18 = icmp eq i64 %17, 0
  br i1 %18, label %21, label %19

19:                                               ; preds = %16
  %20 = call i32 @tls1_parse_peer_sigalgs(ptr noundef nonnull %0, ptr noundef nonnull %4)
  br label %21

21:                                               ; preds = %19, %12, %14, %16
  %.1 = phi i32 [ 0, %16 ], [ 0, %14 ], [ 0, %12 ], [ %20, %19 ]
  call void @llvm.lifetime.end.p0(i64 16, ptr nonnull %4) #21
  br label %22

22:                                               ; preds = %3, %21
  %.0 = phi i32 [ %.1, %21 ], [ 1, %3 ]
  ret i32 %.0
}